target datalayout = "e-m:e-p270:32:32-p271:32:32-p272:64:64-i64:64-i128:128-f80:128-n8:16:32:64-S128"
target triple = "x86_64-pc-linux-gnu"

; Function Attrs: nounwind uwtable
define void @Java_java_awt_SplashScreen__1close(ptr noundef %0, ptr noundef %1, i64 noundef %2) #0 {
  %4 = alloca ptr, align 8
  %5 = alloca ptr, align 8
  %6 = alloca i64, align 8
  %7 = alloca ptr, align 8
  store ptr %0, ptr %4, align 8
  store ptr %1, ptr %5, align 8
  store i64 %2, ptr %6, align 8
  %8 = load i64, ptr %6, align 8
  %9 = inttoptr i64 %8 to ptr
  store ptr %9, ptr %7, align 8
  %10 = load ptr, ptr %7, align 8
  %11 = icmp ne ptr %10, null
  br i1 %11, label %13, label %12

12:                                               ; preds = %3
  br label %17

13:                                               ; preds = %3
  %14 = load ptr, ptr %7, align 8
  call void @SplashLock(ptr noundef %14)
  %15 = load ptr, ptr %7, align 8
  call void @SplashClosePlatform(ptr noundef %15)
  %16 = load ptr, ptr %7, align 8
  call void @SplashUnlock(ptr noundef %16)
  br label %17

17:                                               ; preds = %13, %12
  ret void
}