; Function Attrs: nounwind uwtable
define void @Java_java_awt_SplashScreen__1close(ptr nocapture noundef readnone %0, ptr nocapture noundef readnone %1, i64 noundef %2) local_unnamed_addr #1 {
  %.not = icmp eq i64 %2, 0
  br i1 %.not, label %6, label %4

4:                                                ; preds = %3
  %5 = inttoptr i64 %2 to ptr
  tail call void @SplashLock(ptr noundef nonnull %5) #6
  tail call void @SplashClosePlatform(ptr noundef nonnull %5) #6
  tail call void @SplashUnlock(ptr noundef nonnull %5) #6
  br label %6

6:                                                ; preds = %3, %4
  ret void
}